target datalayout = "e-m:e-p270:32:32-p271:32:32-p272:64:64-i64:64-i128:128-f80:128-n8:16:32:64-S128"
target triple = "x86_64-pc-linux-gnu"

%struct.SDL_GPUDevice = type { ptr, ptr, ptr, ptr, ptr, ptr, ptr, ptr, ptr, ptr, ptr, ptr, ptr, ptr, ptr, ptr, ptr, ptr, ptr, ptr, ptr, ptr, ptr, ptr, ptr, ptr, ptr, ptr, ptr, ptr, ptr, ptr, ptr, ptr, ptr, ptr, ptr, ptr, ptr, ptr, ptr, ptr, ptr, ptr, ptr, ptr, ptr, ptr, ptr, ptr, ptr, ptr, ptr, ptr, ptr, ptr, ptr, ptr, ptr, ptr, ptr, ptr, ptr, ptr, ptr, ptr, ptr, ptr, ptr, ptr, ptr, ptr, ptr, ptr, ptr, ptr, ptr, ptr, ptr, ptr, ptr, ptr, ptr, ptr, ptr, i32, i8 }

@.str.3 = private unnamed_addr constant [19 x i8] c"Invalid GPU device\00", align 1
@.str.4 = private unnamed_addr constant [26 x i8] c"Parameter '%s' is invalid\00", align 1
@.str.8 = private unnamed_addr constant [103 x i8] c"generated/home/dtcxzyw/WorkSpace/Projects/compilers/llvm-opt-benchmark/bench/sdl/SDL/src/gpu/SDL_gpu.c\00", align 1
@.str.352 = private unnamed_addr constant [7 x i8] c"window\00", align 1
@SDL_WindowSupportsGPUSwapchainComposition_REAL.sdl_assert_data = internal global { i8, [3 x i8], i32, ptr, ptr, i32, [4 x i8], ptr, ptr } { i8 0, [3 x i8] zeroinitializer, i32 0, ptr @.str.354, ptr null, i32 0, [4 x i8] zeroinitializer, ptr null, ptr null }, align 8
@__func__.SDL_WindowSupportsGPUSwapchainComposition_REAL = private unnamed_addr constant [47 x i8] c"SDL_WindowSupportsGPUSwapchainComposition_REAL\00", align 1

; Function Attrs: nounwind uwtable
define hidden zeroext i1 @SDL_WindowSupportsGPUSwapchainComposition_REAL(ptr noundef %0, ptr noundef %1, i32 noundef %2) #0 {
  %4 = alloca i1, align 1
  %5 = alloca ptr, align 8
  %6 = alloca ptr, align 8
  %7 = alloca i32, align 4
  %8 = alloca i32, align 4
  %9 = alloca i32, align 4
  store ptr %0, ptr %5, align 8
  store ptr %1, ptr %6, align 8
  store i32 %2, ptr %7, align 4
  %10 = load ptr, ptr %5, align 8
  %11 = icmp eq ptr %10, null
  br i1 %11, label %12, label %14

12:                                               ; preds = %3
  %13 = call zeroext i1 (ptr, ...) @SDL_SetError_REAL(ptr noundef @.str.3)
  store i1 false, ptr %4, align 1
  br label %58

14:                                               ; preds = %3
  %15 = load ptr, ptr %6, align 8
  %16 = icmp eq ptr %15, null
  br i1 %16, label %17, label %19

17:                                               ; preds = %14
  %18 = call zeroext i1 (ptr, ...) @SDL_SetError_REAL(ptr noundef @.str.4, ptr noundef @.str.352)
  store i1 false, ptr %4, align 1
  br label %58

19:                                               ; preds = %14
  %20 = load ptr, ptr %5, align 8
  %21 = getelementptr inbounds nuw %struct.SDL_GPUDevice, ptr %20, i32 0, i32 86
  %22 = load i8, ptr %21, align 4, !range !5, !noundef !6
  %23 = trunc i8 %22 to i1
  br i1 %23, label %24, label %48

24:                                               ; preds = %19
  %25 = load i32, ptr %7, align 4
  %26 = icmp ult i32 %25, 0
  br i1 %26, label %30, label %27

27:                                               ; preds = %24
  %28 = load i32, ptr %7, align 4
  %29 = icmp uge i32 %28, 4
  br i1 %29, label %30, label %47

30:                                               ; preds = %27, %24
  br label %31

31:                                               ; preds = %30
  br label %32

32:                                               ; preds = %31, %43
  call void @llvm.lifetime.start.p0(i64 4, ptr %8) #6
  %33 = call i32 @SDL_ReportAssertion_REAL(ptr noundef @SDL_WindowSupportsGPUSwapchainComposition_REAL.sdl_assert_data, ptr noundef @__func__.SDL_WindowSupportsGPUSwapchainComposition_REAL, ptr noundef @.str.8, i32 noundef 2822)
  store i32 %33, ptr %8, align 4
  %34 = load i32, ptr %8, align 4
  %35 = icmp eq i32 %34, 0
  br i1 %35, label %36, label %37

36:                                               ; preds = %32
  store i32 4, ptr %9, align 4
  br label %43

37:                                               ; preds = %32
  %38 = load i32, ptr %8, align 4
  %39 = icmp eq i32 %38, 1
  br i1 %39, label %40, label %41

40:                                               ; preds = %37
  call void @llvm.debugtrap()
  br label %41

41:                                               ; preds = %40, %37
  br label %42

42:                                               ; preds = %41
  store i32 5, ptr %9, align 4
  br label %43

43:                                               ; preds = %42, %36
  call void @llvm.lifetime.end.p0(i64 4, ptr %8) #6
  %44 = load i32, ptr %9, align 4
  switch i32 %44, label %60 [
    i32 4, label %32
    i32 5, label %45
  ]

45:                                               ; preds = %43
  br label %46

46:                                               ; preds = %45
  store i1 false, ptr %4, align 1
  br label %58

47:                                               ; preds = %27
  br label %48

48:                                               ; preds = %47, %19
  %49 = load ptr, ptr %5, align 8
  %50 = getelementptr inbounds nuw %struct.SDL_GPUDevice, ptr %49, i32 0, i32 63
  %51 = load ptr, ptr %50, align 8
  %52 = load ptr, ptr %5, align 8
  %53 = getelementptr inbounds nuw %struct.SDL_GPUDevice, ptr %52, i32 0, i32 83
  %54 = load ptr, ptr %53, align 8
  %55 = load ptr, ptr %6, align 8
  %56 = load i32, ptr %7, align 4
  %57 = call zeroext i1 %51(ptr noundef %54, ptr noundef %55, i32 noundef %56)
  store i1 %57, ptr %4, align 1
  br label %58

58:                                               ; preds = %48, %46, %17, %12
  %59 = load i1, ptr %4, align 1
  ret i1 %59

60:                                               ; preds = %43
  unreachable
}